ARM GAS  /tmp/ccn0Bt7Q.s 			page 1


   1              		.cpu cortex-m4
   2              		.eabi_attribute 27, 1
   3              		.eabi_attribute 28, 1
   4              		.eabi_attribute 20, 1
   5              		.eabi_attribute 21, 1
   6              		.eabi_attribute 23, 3
   7              		.eabi_attribute 24, 1
   8              		.eabi_attribute 25, 1
   9              		.eabi_attribute 26, 1
  10              		.eabi_attribute 30, 2
  11              		.eabi_attribute 34, 1
  12              		.eabi_attribute 18, 4
  13              		.file	"main.c"
  14              		.text
  15              	.Ltext0:
  16              		.cfi_sections	.debug_frame
  17              		.section	.text.init,"ax",%progbits
  18              		.align	1
  19              		.p2align 4,,15
  20              		.global	init
  21              		.syntax unified
  22              		.thumb
  23              		.thumb_func
  24              		.fpu fpv4-sp-d16
  25              		.type	init, %function
  26              	init:
  27              	.LFB259:
  28              		.file 1 "main.c"
  29              		.loc 1 33 0
  30              		.cfi_startproc
  31              		@ args = 0, pretend = 0, frame = 8
  32              		@ frame_needed = 0, uses_anonymous_args = 0
  33 0000 10B5     		push	{r4, lr}
  34              		.cfi_def_cfa_offset 8
  35              		.cfi_offset 4, -8
  36              		.cfi_offset 14, -4
  37 0002 134C     		ldr	r4, .L7
  38 0004 82B0     		sub	sp, sp, #8
  39              		.cfi_def_cfa_offset 16
  40              		.loc 1 33 0
  41 0006 2368     		ldr	r3, [r4]
  42 0008 0193     		str	r3, [sp, #4]
  43              		.loc 1 34 0
  44 000a FFF7FEFF 		bl	halInit
  45              	.LVL0:
  46              		.loc 1 35 0
  47 000e FFF7FEFF 		bl	chSysInit
  48              	.LVL1:
  49              		.loc 1 36 0
  50 0012 FFF7FEFF 		bl	mpu_init
  51              	.LVL2:
  52              		.loc 1 39 0
  53 0016 FFF7FEFF 		bl	clear_leds
  54              	.LVL3:
  55              		.loc 1 40 0
  56 001a FFF7FEFF 		bl	spi_comm_start
  57              	.LVL4:
ARM GAS  /tmp/ccn0Bt7Q.s 			page 2


  58              		.loc 1 43 0
  59 001e FFF7FEFF 		bl	motors_init
  60              	.LVL5:
  61              		.loc 1 46 0
  62 0022 FFF7FEFF 		bl	serial_start
  63              	.LVL6:
  64              		.loc 1 49 0
  65 0026 0B4A     		ldr	r2, .L7+4
  66 0028 0B49     		ldr	r1, .L7+8
  67 002a 0C48     		ldr	r0, .L7+12
  68 002c FFF7FEFF 		bl	messagebus_init
  69              	.LVL7:
  70              		.loc 1 50 0
  71 0030 0020     		movs	r0, #0
  72 0032 FFF7FEFF 		bl	proximity_start
  73              	.LVL8:
  74              		.loc 1 51 0
  75 0036 FFF7FEFF 		bl	calibrate_ir
  76              	.LVL9:
  77              		.loc 1 54 0
  78 003a 019A     		ldr	r2, [sp, #4]
  79 003c 2368     		ldr	r3, [r4]
  80 003e 9A42     		cmp	r2, r3
  81 0040 04D1     		bne	.L6
  82              		.loc 1 55 0
  83 0042 02B0     		add	sp, sp, #8
  84              		.cfi_remember_state
  85              		.cfi_def_cfa_offset 8
  86              		@ sp needed
  87 0044 BDE81040 		pop	{r4, lr}
  88              		.cfi_restore 14
  89              		.cfi_restore 4
  90              		.cfi_def_cfa_offset 0
  91              		.loc 1 54 0
  92 0048 FFF7FEBF 		b	VL53L0X_start
  93              	.LVL10:
  94              	.L6:
  95              		.cfi_restore_state
  96 004c FFF7FEFF 		bl	__stack_chk_fail
  97              	.LVL11:
  98              	.L8:
  99              		.align	2
 100              	.L7:
 101 0050 00000000 		.word	__stack_chk_guard
 102 0054 00000000 		.word	.LANCHOR0
 103 0058 00000000 		.word	.LANCHOR1
 104 005c 00000000 		.word	.LANCHOR2
 105              		.cfi_endproc
 106              	.LFE259:
 107              		.size	init, .-init
 108              		.section	.text.move_forward,"ax",%progbits
 109              		.align	1
 110              		.p2align 4,,15
 111              		.global	move_forward
 112              		.syntax unified
 113              		.thumb
 114              		.thumb_func
ARM GAS  /tmp/ccn0Bt7Q.s 			page 3


 115              		.fpu fpv4-sp-d16
 116              		.type	move_forward, %function
 117              	move_forward:
 118              	.LFB260:
 119              		.loc 1 57 0
 120              		.cfi_startproc
 121              		@ args = 0, pretend = 0, frame = 16
 122              		@ frame_needed = 0, uses_anonymous_args = 0
 123              	.LVL12:
 124 0000 10B5     		push	{r4, lr}
 125              		.cfi_def_cfa_offset 8
 126              		.cfi_offset 4, -8
 127              		.cfi_offset 14, -4
 128              		.loc 1 58 0
 129 0002 FDEEC07A 		vcvt.s32.f32	s15, s0
 130              		.loc 1 57 0
 131 0006 0B4C     		ldr	r4, .L14
 132 0008 84B0     		sub	sp, sp, #16
 133              		.cfi_def_cfa_offset 24
 134              		.loc 1 57 0
 135 000a 2368     		ldr	r3, [r4]
 136 000c 0393     		str	r3, [sp, #12]
 137              		.loc 1 58 0
 138 000e 17EE900A 		vmov	r0, s15	@ int
 139 0012 CDED017A 		vstr.32	s15, [sp, #4]	@ int
 140 0016 FFF7FEFF 		bl	left_motor_set_speed
 141              	.LVL13:
 142              		.loc 1 59 0
 143 001a 039A     		ldr	r2, [sp, #12]
 144 001c 2368     		ldr	r3, [r4]
 145 001e 9A42     		cmp	r2, r3
 146 0020 05D1     		bne	.L13
 147 0022 0198     		ldr	r0, [sp, #4]
 148              		.loc 1 60 0
 149 0024 04B0     		add	sp, sp, #16
 150              		.cfi_remember_state
 151              		.cfi_def_cfa_offset 8
 152              		@ sp needed
 153 0026 BDE81040 		pop	{r4, lr}
 154              		.cfi_restore 14
 155              		.cfi_restore 4
 156              		.cfi_def_cfa_offset 0
 157              		.loc 1 59 0
 158 002a FFF7FEBF 		b	right_motor_set_speed
 159              	.LVL14:
 160              	.L13:
 161              		.cfi_restore_state
 162 002e FFF7FEFF 		bl	__stack_chk_fail
 163              	.LVL15:
 164              	.L15:
 165 0032 00BF     		.align	2
 166              	.L14:
 167 0034 00000000 		.word	__stack_chk_guard
 168              		.cfi_endproc
 169              	.LFE260:
 170              		.size	move_forward, .-move_forward
 171              		.section	.text.move_backward,"ax",%progbits
ARM GAS  /tmp/ccn0Bt7Q.s 			page 4


 172              		.align	1
 173              		.p2align 4,,15
 174              		.global	move_backward
 175              		.syntax unified
 176              		.thumb
 177              		.thumb_func
 178              		.fpu fpv4-sp-d16
 179              		.type	move_backward, %function
 180              	move_backward:
 181              	.LFB261:
 182              		.loc 1 62 0
 183              		.cfi_startproc
 184              		@ args = 0, pretend = 0, frame = 16
 185              		@ frame_needed = 0, uses_anonymous_args = 0
 186              	.LVL16:
 187 0000 10B5     		push	{r4, lr}
 188              		.cfi_def_cfa_offset 8
 189              		.cfi_offset 4, -8
 190              		.cfi_offset 14, -4
 191              		.loc 1 63 0
 192 0002 B1EE400A 		vneg.f32	s0, s0
 193              	.LVL17:
 194 0006 FDEEC07A 		vcvt.s32.f32	s15, s0
 195              		.loc 1 62 0
 196 000a 0B4C     		ldr	r4, .L21
 197 000c 84B0     		sub	sp, sp, #16
 198              		.cfi_def_cfa_offset 24
 199              		.loc 1 62 0
 200 000e 2368     		ldr	r3, [r4]
 201 0010 0393     		str	r3, [sp, #12]
 202              		.loc 1 63 0
 203 0012 17EE900A 		vmov	r0, s15	@ int
 204 0016 CDED017A 		vstr.32	s15, [sp, #4]	@ int
 205 001a FFF7FEFF 		bl	left_motor_set_speed
 206              	.LVL18:
 207              		.loc 1 64 0
 208 001e 039A     		ldr	r2, [sp, #12]
 209 0020 2368     		ldr	r3, [r4]
 210 0022 9A42     		cmp	r2, r3
 211 0024 05D1     		bne	.L20
 212 0026 0198     		ldr	r0, [sp, #4]
 213              		.loc 1 65 0
 214 0028 04B0     		add	sp, sp, #16
 215              		.cfi_remember_state
 216              		.cfi_def_cfa_offset 8
 217              		@ sp needed
 218 002a BDE81040 		pop	{r4, lr}
 219              		.cfi_restore 14
 220              		.cfi_restore 4
 221              		.cfi_def_cfa_offset 0
 222              		.loc 1 64 0
 223 002e FFF7FEBF 		b	right_motor_set_speed
 224              	.LVL19:
 225              	.L20:
 226              		.cfi_restore_state
 227 0032 FFF7FEFF 		bl	__stack_chk_fail
 228              	.LVL20:
ARM GAS  /tmp/ccn0Bt7Q.s 			page 5


 229              	.L22:
 230 0036 00BF     		.align	2
 231              	.L21:
 232 0038 00000000 		.word	__stack_chk_guard
 233              		.cfi_endproc
 234              	.LFE261:
 235              		.size	move_backward, .-move_backward
 236              		.section	.text.turn_left,"ax",%progbits
 237              		.align	1
 238              		.p2align 4,,15
 239              		.global	turn_left
 240              		.syntax unified
 241              		.thumb
 242              		.thumb_func
 243              		.fpu fpv4-sp-d16
 244              		.type	turn_left, %function
 245              	turn_left:
 246              	.LFB262:
 247              		.loc 1 67 0
 248              		.cfi_startproc
 249              		@ args = 0, pretend = 0, frame = 8
 250              		@ frame_needed = 0, uses_anonymous_args = 0
 251              	.LVL21:
 252 0000 10B5     		push	{r4, lr}
 253              		.cfi_def_cfa_offset 8
 254              		.cfi_offset 4, -8
 255              		.cfi_offset 14, -4
 256 0002 2DED028B 		vpush.64	{d8}
 257              		.cfi_def_cfa_offset 16
 258              		.cfi_offset 80, -16
 259              		.cfi_offset 81, -12
 260              		.loc 1 68 0
 261 0006 F1EE407A 		vneg.f32	s15, s0
 262              		.loc 1 67 0
 263 000a 0E4C     		ldr	r4, .L28
 264              		.loc 1 68 0
 265 000c FDEEE77A 		vcvt.s32.f32	s15, s15
 266              		.loc 1 67 0
 267 0010 82B0     		sub	sp, sp, #8
 268              		.cfi_def_cfa_offset 24
 269              		.loc 1 67 0
 270 0012 2368     		ldr	r3, [r4]
 271 0014 0193     		str	r3, [sp, #4]
 272              		.loc 1 68 0
 273 0016 17EE900A 		vmov	r0, s15	@ int
 274              		.loc 1 67 0
 275 001a B0EE408A 		vmov.f32	s16, s0
 276              		.loc 1 68 0
 277 001e FFF7FEFF 		bl	left_motor_set_speed
 278              	.LVL22:
 279              		.loc 1 69 0
 280 0022 019A     		ldr	r2, [sp, #4]
 281 0024 2368     		ldr	r3, [r4]
 282 0026 9A42     		cmp	r2, r3
 283 0028 0AD1     		bne	.L27
 284 002a FDEEC87A 		vcvt.s32.f32	s15, s16
 285 002e 17EE900A 		vmov	r0, s15	@ int
ARM GAS  /tmp/ccn0Bt7Q.s 			page 6


 286              		.loc 1 70 0
 287 0032 02B0     		add	sp, sp, #8
 288              		.cfi_remember_state
 289              		.cfi_def_cfa_offset 16
 290              		@ sp needed
 291 0034 BDEC028B 		vldm	sp!, {d8}
 292              		.cfi_restore 80
 293              		.cfi_restore 81
 294              		.cfi_def_cfa_offset 8
 295              	.LVL23:
 296 0038 BDE81040 		pop	{r4, lr}
 297              		.cfi_restore 14
 298              		.cfi_restore 4
 299              		.cfi_def_cfa_offset 0
 300              		.loc 1 69 0
 301 003c FFF7FEBF 		b	right_motor_set_speed
 302              	.LVL24:
 303              	.L27:
 304              		.cfi_restore_state
 305 0040 FFF7FEFF 		bl	__stack_chk_fail
 306              	.LVL25:
 307              	.L29:
 308              		.align	2
 309              	.L28:
 310 0044 00000000 		.word	__stack_chk_guard
 311              		.cfi_endproc
 312              	.LFE262:
 313              		.size	turn_left, .-turn_left
 314              		.section	.text.turn_right,"ax",%progbits
 315              		.align	1
 316              		.p2align 4,,15
 317              		.global	turn_right
 318              		.syntax unified
 319              		.thumb
 320              		.thumb_func
 321              		.fpu fpv4-sp-d16
 322              		.type	turn_right, %function
 323              	turn_right:
 324              	.LFB263:
 325              		.loc 1 72 0
 326              		.cfi_startproc
 327              		@ args = 0, pretend = 0, frame = 8
 328              		@ frame_needed = 0, uses_anonymous_args = 0
 329              	.LVL26:
 330 0000 10B5     		push	{r4, lr}
 331              		.cfi_def_cfa_offset 8
 332              		.cfi_offset 4, -8
 333              		.cfi_offset 14, -4
 334 0002 2DED028B 		vpush.64	{d8}
 335              		.cfi_def_cfa_offset 16
 336              		.cfi_offset 80, -16
 337              		.cfi_offset 81, -12
 338 0006 0F4C     		ldr	r4, .L35
 339              		.loc 1 73 0
 340 0008 FDEEC07A 		vcvt.s32.f32	s15, s0
 341              		.loc 1 72 0
 342 000c 82B0     		sub	sp, sp, #8
ARM GAS  /tmp/ccn0Bt7Q.s 			page 7


 343              		.cfi_def_cfa_offset 24
 344              		.loc 1 72 0
 345 000e 2368     		ldr	r3, [r4]
 346 0010 0193     		str	r3, [sp, #4]
 347              		.loc 1 73 0
 348 0012 17EE900A 		vmov	r0, s15	@ int
 349              		.loc 1 72 0
 350 0016 B0EE408A 		vmov.f32	s16, s0
 351              		.loc 1 73 0
 352 001a FFF7FEFF 		bl	left_motor_set_speed
 353              	.LVL27:
 354              		.loc 1 74 0
 355 001e 019A     		ldr	r2, [sp, #4]
 356 0020 2368     		ldr	r3, [r4]
 357 0022 9A42     		cmp	r2, r3
 358 0024 0CD1     		bne	.L34
 359 0026 B1EE488A 		vneg.f32	s16, s16
 360              	.LVL28:
 361 002a FDEEC87A 		vcvt.s32.f32	s15, s16
 362 002e 17EE900A 		vmov	r0, s15	@ int
 363              		.loc 1 75 0
 364 0032 02B0     		add	sp, sp, #8
 365              		.cfi_remember_state
 366              		.cfi_def_cfa_offset 16
 367              		@ sp needed
 368 0034 BDEC028B 		vldm	sp!, {d8}
 369              		.cfi_restore 80
 370              		.cfi_restore 81
 371              		.cfi_def_cfa_offset 8
 372 0038 BDE81040 		pop	{r4, lr}
 373              		.cfi_restore 14
 374              		.cfi_restore 4
 375              		.cfi_def_cfa_offset 0
 376              		.loc 1 74 0
 377 003c FFF7FEBF 		b	right_motor_set_speed
 378              	.LVL29:
 379              	.L34:
 380              		.cfi_restore_state
 381 0040 FFF7FEFF 		bl	__stack_chk_fail
 382              	.LVL30:
 383              	.L36:
 384              		.align	2
 385              	.L35:
 386 0044 00000000 		.word	__stack_chk_guard
 387              		.cfi_endproc
 388              	.LFE263:
 389              		.size	turn_right, .-turn_right
 390              		.section	.text.stop,"ax",%progbits
 391              		.align	1
 392              		.p2align 4,,15
 393              		.global	stop
 394              		.syntax unified
 395              		.thumb
 396              		.thumb_func
 397              		.fpu fpv4-sp-d16
 398              		.type	stop, %function
 399              	stop:
ARM GAS  /tmp/ccn0Bt7Q.s 			page 8


 400              	.LFB264:
 401              		.loc 1 77 0
 402              		.cfi_startproc
 403              		@ args = 0, pretend = 0, frame = 8
 404              		@ frame_needed = 0, uses_anonymous_args = 0
 405 0000 10B5     		push	{r4, lr}
 406              		.cfi_def_cfa_offset 8
 407              		.cfi_offset 4, -8
 408              		.cfi_offset 14, -4
 409 0002 094C     		ldr	r4, .L42
 410 0004 82B0     		sub	sp, sp, #8
 411              		.cfi_def_cfa_offset 16
 412              		.loc 1 77 0
 413 0006 2368     		ldr	r3, [r4]
 414 0008 0193     		str	r3, [sp, #4]
 415              		.loc 1 78 0
 416 000a 0020     		movs	r0, #0
 417 000c FFF7FEFF 		bl	left_motor_set_speed
 418              	.LVL31:
 419              		.loc 1 79 0
 420 0010 019A     		ldr	r2, [sp, #4]
 421 0012 2368     		ldr	r3, [r4]
 422 0014 9A42     		cmp	r2, r3
 423 0016 05D1     		bne	.L41
 424 0018 0020     		movs	r0, #0
 425              		.loc 1 80 0
 426 001a 02B0     		add	sp, sp, #8
 427              		.cfi_remember_state
 428              		.cfi_def_cfa_offset 8
 429              		@ sp needed
 430 001c BDE81040 		pop	{r4, lr}
 431              		.cfi_restore 14
 432              		.cfi_restore 4
 433              		.cfi_def_cfa_offset 0
 434              		.loc 1 79 0
 435 0020 FFF7FEBF 		b	right_motor_set_speed
 436              	.LVL32:
 437              	.L41:
 438              		.cfi_restore_state
 439 0024 FFF7FEFF 		bl	__stack_chk_fail
 440              	.LVL33:
 441              	.L43:
 442              		.align	2
 443              	.L42:
 444 0028 00000000 		.word	__stack_chk_guard
 445              		.cfi_endproc
 446              	.LFE264:
 447              		.size	stop, .-stop
 448              		.section	.text.obstacle_avoidance,"ax",%progbits
 449              		.align	1
 450              		.p2align 4,,15
 451              		.global	obstacle_avoidance
 452              		.syntax unified
 453              		.thumb
 454              		.thumb_func
 455              		.fpu fpv4-sp-d16
 456              		.type	obstacle_avoidance, %function
ARM GAS  /tmp/ccn0Bt7Q.s 			page 9


 457              	obstacle_avoidance:
 458              	.LFB265:
 459              		.loc 1 82 0
 460              		.cfi_startproc
 461              		@ args = 0, pretend = 0, frame = 8
 462              		@ frame_needed = 0, uses_anonymous_args = 0
 463 0000 10B5     		push	{r4, lr}
 464              		.cfi_def_cfa_offset 8
 465              		.cfi_offset 4, -8
 466              		.cfi_offset 14, -4
 467 0002 5C4C     		ldr	r4, .L66
 468 0004 82B0     		sub	sp, sp, #8
 469              		.cfi_def_cfa_offset 16
 470              		.loc 1 82 0
 471 0006 2368     		ldr	r3, [r4]
 472 0008 0193     		str	r3, [sp, #4]
 473              		.loc 1 117 0
 474 000a 0120     		movs	r0, #1
 475 000c FFF7FEFF 		bl	get_calibrated_prox
 476              	.LVL34:
 477 0010 6428     		cmp	r0, #100
 478 0012 04D9     		bls	.L45
 479              		.loc 1 117 0 is_stmt 0 discriminator 1
 480 0014 0220     		movs	r0, #2
 481 0016 FFF7FEFF 		bl	get_calibrated_prox
 482              	.LVL35:
 483 001a 6428     		cmp	r0, #100
 484 001c 6BD8     		bhi	.L62
 485              	.L45:
 486              		.loc 1 122 0 is_stmt 1
 487 001e 0120     		movs	r0, #1
 488 0020 FFF7FEFF 		bl	get_calibrated_prox
 489              	.LVL36:
 490 0024 6428     		cmp	r0, #100
 491 0026 05D9     		bls	.L47
 492              		.loc 1 122 0 is_stmt 0 discriminator 1
 493 0028 0220     		movs	r0, #2
 494 002a FFF7FEFF 		bl	get_calibrated_prox
 495              	.LVL37:
 496 002e 6428     		cmp	r0, #100
 497 0030 00F28580 		bhi	.L63
 498              	.L47:
 499              		.loc 1 126 0 is_stmt 1
 500 0034 0520     		movs	r0, #5
 501 0036 FFF7FEFF 		bl	get_calibrated_prox
 502              	.LVL38:
 503 003a 6428     		cmp	r0, #100
 504 003c 04D9     		bls	.L49
 505              		.loc 1 126 0 is_stmt 0 discriminator 1
 506 003e 0620     		movs	r0, #6
 507 0040 FFF7FEFF 		bl	get_calibrated_prox
 508              	.LVL39:
 509 0044 6428     		cmp	r0, #100
 510 0046 46D8     		bhi	.L64
 511              	.L49:
 512              		.loc 1 128 0 is_stmt 1
 513 0048 0020     		movs	r0, #0
ARM GAS  /tmp/ccn0Bt7Q.s 			page 10


 514 004a FFF7FEFF 		bl	get_calibrated_prox
 515              	.LVL40:
 516 004e 6428     		cmp	r0, #100
 517 0050 04D9     		bls	.L51
 518              		.loc 1 128 0 is_stmt 0 discriminator 1
 519 0052 0120     		movs	r0, #1
 520 0054 FFF7FEFF 		bl	get_calibrated_prox
 521              	.LVL41:
 522 0058 6428     		cmp	r0, #100
 523 005a 2CD8     		bhi	.L65
 524              	.L51:
 525              		.loc 1 130 0 is_stmt 1
 526 005c 0020     		movs	r0, #0
 527 005e FFF7FEFF 		bl	get_calibrated_prox
 528              	.LVL42:
 529 0062 6428     		cmp	r0, #100
 530 0064 04D9     		bls	.L53
 531              		.loc 1 130 0 is_stmt 0 discriminator 1
 532 0066 0120     		movs	r0, #1
 533 0068 FFF7FEFF 		bl	get_calibrated_prox
 534              	.LVL43:
 535 006c 6428     		cmp	r0, #100
 536 006e 27D8     		bhi	.L54
 537              	.L53:
 538              		.loc 1 132 0 is_stmt 1
 539 0070 0520     		movs	r0, #5
 540 0072 FFF7FEFF 		bl	get_calibrated_prox
 541              	.LVL44:
 542 0076 6428     		cmp	r0, #100
 543 0078 04D9     		bls	.L55
 544              		.loc 1 132 0 is_stmt 0 discriminator 1
 545 007a 0620     		movs	r0, #6
 546 007c FFF7FEFF 		bl	get_calibrated_prox
 547              	.LVL45:
 548 0080 6428     		cmp	r0, #100
 549 0082 2DD8     		bhi	.L56
 550              	.L55:
 551              		.loc 1 134 0 is_stmt 1
 552 0084 0020     		movs	r0, #0
 553 0086 FFF7FEFF 		bl	get_calibrated_prox
 554              	.LVL46:
 555 008a 6428     		cmp	r0, #100
 556 008c 18D8     		bhi	.L54
 557              		.loc 1 136 0
 558 008e 0520     		movs	r0, #5
 559 0090 FFF7FEFF 		bl	get_calibrated_prox
 560              	.LVL47:
 561 0094 6428     		cmp	r0, #100
 562 0096 23D8     		bhi	.L56
 563              	.L57:
 564              	.LVL48:
 565              	.LBB8:
 566              	.LBB9:
 567              		.loc 1 58 0
 568 0098 4FF47A70 		mov	r0, #1000
 569 009c FFF7FEFF 		bl	left_motor_set_speed
 570              	.LVL49:
ARM GAS  /tmp/ccn0Bt7Q.s 			page 11


 571              		.loc 1 59 0
 572 00a0 019A     		ldr	r2, [sp, #4]
 573 00a2 2368     		ldr	r3, [r4]
 574 00a4 9A42     		cmp	r2, r3
 575 00a6 63D1     		bne	.L61
 576 00a8 4FF47A70 		mov	r0, #1000
 577              	.LBE9:
 578              	.LBE8:
 579              		.loc 1 142 0
 580 00ac 02B0     		add	sp, sp, #8
 581              		.cfi_remember_state
 582              		.cfi_def_cfa_offset 8
 583              		@ sp needed
 584 00ae BDE81040 		pop	{r4, lr}
 585              		.cfi_restore 14
 586              		.cfi_restore 4
 587              		.cfi_def_cfa_offset 0
 588              	.LBB11:
 589              	.LBB10:
 590              		.loc 1 59 0
 591 00b2 FFF7FEBF 		b	right_motor_set_speed
 592              	.LVL50:
 593              	.L65:
 594              		.cfi_restore_state
 595              	.LBE10:
 596              	.LBE11:
 597              		.loc 1 128 0 discriminator 2
 598 00b6 0220     		movs	r0, #2
 599 00b8 FFF7FEFF 		bl	get_calibrated_prox
 600              	.LVL51:
 601 00bc 6428     		cmp	r0, #100
 602 00be CDD9     		bls	.L51
 603              	.L54:
 604              		.loc 1 129 0
 605 00c0 019A     		ldr	r2, [sp, #4]
 606 00c2 2368     		ldr	r3, [r4]
 607 00c4 9A42     		cmp	r2, r3
 608 00c6 53D1     		bne	.L61
 609 00c8 9FED2B0A 		vldr.32	s0, .L66+4
 610              		.loc 1 142 0
 611 00cc 02B0     		add	sp, sp, #8
 612              		.cfi_remember_state
 613              		.cfi_def_cfa_offset 8
 614              		@ sp needed
 615 00ce BDE81040 		pop	{r4, lr}
 616              		.cfi_restore 14
 617              		.cfi_restore 4
 618              		.cfi_def_cfa_offset 0
 619              		.loc 1 129 0
 620 00d2 FFF7FEBF 		b	turn_left
 621              	.LVL52:
 622              	.L64:
 623              		.cfi_restore_state
 624              		.loc 1 126 0 discriminator 2
 625 00d6 0720     		movs	r0, #7
 626 00d8 FFF7FEFF 		bl	get_calibrated_prox
 627              	.LVL53:
ARM GAS  /tmp/ccn0Bt7Q.s 			page 12


 628 00dc 6428     		cmp	r0, #100
 629 00de B3D9     		bls	.L49
 630              	.L56:
 631              		.loc 1 127 0
 632 00e0 019A     		ldr	r2, [sp, #4]
 633 00e2 2368     		ldr	r3, [r4]
 634 00e4 9A42     		cmp	r2, r3
 635 00e6 43D1     		bne	.L61
 636 00e8 9FED230A 		vldr.32	s0, .L66+4
 637              		.loc 1 142 0
 638 00ec 02B0     		add	sp, sp, #8
 639              		.cfi_remember_state
 640              		.cfi_def_cfa_offset 8
 641              		@ sp needed
 642 00ee BDE81040 		pop	{r4, lr}
 643              		.cfi_restore 14
 644              		.cfi_restore 4
 645              		.cfi_def_cfa_offset 0
 646              		.loc 1 127 0
 647 00f2 FFF7FEBF 		b	turn_right
 648              	.LVL54:
 649              	.L62:
 650              		.cfi_restore_state
 651              		.loc 1 118 0 discriminator 2
 652 00f6 0520     		movs	r0, #5
 653 00f8 FFF7FEFF 		bl	get_calibrated_prox
 654              	.LVL55:
 655              		.loc 1 117 0 discriminator 2
 656 00fc 6428     		cmp	r0, #100
 657 00fe 8ED9     		bls	.L45
 658              		.loc 1 118 0
 659 0100 0620     		movs	r0, #6
 660 0102 FFF7FEFF 		bl	get_calibrated_prox
 661              	.LVL56:
 662 0106 6428     		cmp	r0, #100
 663 0108 89D9     		bls	.L45
 664              		.loc 1 119 0 discriminator 1
 665 010a 0720     		movs	r0, #7
 666 010c FFF7FEFF 		bl	get_calibrated_prox
 667              	.LVL57:
 668              		.loc 1 118 0 discriminator 1
 669 0110 6428     		cmp	r0, #100
 670 0112 84D9     		bls	.L45
 671              		.loc 1 119 0
 672 0114 0820     		movs	r0, #8
 673 0116 FFF7FEFF 		bl	get_calibrated_prox
 674              	.LVL58:
 675 011a 6428     		cmp	r0, #100
 676 011c 7FF67FAF 		bls	.L45
 677              		.loc 1 120 0
 678 0120 9FED150A 		vldr.32	s0, .L66+4
 679 0124 FFF7FEFF 		bl	turn_right
 680              	.LVL59:
 681              		.loc 1 121 0
 682 0128 019A     		ldr	r2, [sp, #4]
 683 012a 2368     		ldr	r3, [r4]
 684 012c 9A42     		cmp	r2, r3
ARM GAS  /tmp/ccn0Bt7Q.s 			page 13


 685 012e 1FD1     		bne	.L61
 686 0130 4FF47A70 		mov	r0, #1000
 687              		.loc 1 142 0
 688 0134 02B0     		add	sp, sp, #8
 689              		.cfi_remember_state
 690              		.cfi_def_cfa_offset 8
 691              		@ sp needed
 692 0136 BDE81040 		pop	{r4, lr}
 693              		.cfi_restore 14
 694              		.cfi_restore 4
 695              		.cfi_def_cfa_offset 0
 696              		.loc 1 121 0
 697 013a FFF7FEBF 		b	chThdSleep
 698              	.LVL60:
 699              	.L63:
 700              		.cfi_restore_state
 701              		.loc 1 123 0 discriminator 2
 702 013e 0520     		movs	r0, #5
 703 0140 FFF7FEFF 		bl	get_calibrated_prox
 704              	.LVL61:
 705              		.loc 1 122 0 discriminator 2
 706 0144 6428     		cmp	r0, #100
 707 0146 7FF675AF 		bls	.L47
 708              		.loc 1 123 0
 709 014a 0620     		movs	r0, #6
 710 014c FFF7FEFF 		bl	get_calibrated_prox
 711              	.LVL62:
 712 0150 6428     		cmp	r0, #100
 713 0152 7FF66FAF 		bls	.L47
 714              		.loc 1 124 0 discriminator 1
 715 0156 0720     		movs	r0, #7
 716 0158 FFF7FEFF 		bl	get_calibrated_prox
 717              	.LVL63:
 718              		.loc 1 123 0 discriminator 1
 719 015c 6328     		cmp	r0, #99
 720 015e 3FF669AF 		bhi	.L47
 721              		.loc 1 124 0
 722 0162 0820     		movs	r0, #8
 723 0164 FFF7FEFF 		bl	get_calibrated_prox
 724              	.LVL64:
 725 0168 6328     		cmp	r0, #99
 726 016a 3FF663AF 		bhi	.L47
 727 016e 93E7     		b	.L57
 728              	.L61:
 729              		.loc 1 129 0
 730 0170 FFF7FEFF 		bl	__stack_chk_fail
 731              	.LVL65:
 732              	.L67:
 733              		.align	2
 734              	.L66:
 735 0174 00000000 		.word	__stack_chk_guard
 736 0178 00007A44 		.word	1148846080
 737              		.cfi_endproc
 738              	.LFE265:
 739              		.size	obstacle_avoidance, .-obstacle_avoidance
 740              		.section	.text.send_bt_values,"ax",%progbits
 741              		.align	1
ARM GAS  /tmp/ccn0Bt7Q.s 			page 14


 742              		.p2align 4,,15
 743              		.global	send_bt_values
 744              		.syntax unified
 745              		.thumb
 746              		.thumb_func
 747              		.fpu fpv4-sp-d16
 748              		.type	send_bt_values, %function
 749              	send_bt_values:
 750              	.LFB266:
 751              		.loc 1 144 0
 752              		.cfi_startproc
 753              		@ args = 0, pretend = 0, frame = 112
 754              		@ frame_needed = 0, uses_anonymous_args = 0
 755 0000 2DE9F04F 		push	{r4, r5, r6, r7, r8, r9, r10, fp, lr}
 756              		.cfi_def_cfa_offset 36
 757              		.cfi_offset 4, -36
 758              		.cfi_offset 5, -32
 759              		.cfi_offset 6, -28
 760              		.cfi_offset 7, -24
 761              		.cfi_offset 8, -20
 762              		.cfi_offset 9, -16
 763              		.cfi_offset 10, -12
 764              		.cfi_offset 11, -8
 765              		.cfi_offset 14, -4
 766 0004 224C     		ldr	r4, .L72
 767 0006 A5B0     		sub	sp, sp, #148
 768              		.cfi_def_cfa_offset 184
 769              		.loc 1 144 0
 770 0008 2368     		ldr	r3, [r4]
 771 000a 2393     		str	r3, [sp, #140]
 772              		.loc 1 148 0
 773 000c 0020     		movs	r0, #0
 774 000e FFF7FEFF 		bl	get_calibrated_prox
 775              	.LVL66:
 776 0012 0546     		mov	r5, r0
 777 0014 0120     		movs	r0, #1
 778 0016 FFF7FEFF 		bl	get_calibrated_prox
 779              	.LVL67:
 780 001a 0646     		mov	r6, r0
 781 001c 0220     		movs	r0, #2
 782 001e FFF7FEFF 		bl	get_calibrated_prox
 783              	.LVL68:
 784 0022 0990     		str	r0, [sp, #36]
 785 0024 0320     		movs	r0, #3
 786 0026 FFF7FEFF 		bl	get_calibrated_prox
 787              	.LVL69:
 788 002a 0746     		mov	r7, r0
 789 002c 0420     		movs	r0, #4
 790 002e FFF7FEFF 		bl	get_calibrated_prox
 791              	.LVL70:
 792 0032 8046     		mov	r8, r0
 793 0034 0520     		movs	r0, #5
 794 0036 FFF7FEFF 		bl	get_calibrated_prox
 795              	.LVL71:
 796 003a 8146     		mov	r9, r0
 797 003c 0620     		movs	r0, #6
 798 003e FFF7FEFF 		bl	get_calibrated_prox
ARM GAS  /tmp/ccn0Bt7Q.s 			page 15


 799              	.LVL72:
 800 0042 8246     		mov	r10, r0
 801 0044 0720     		movs	r0, #7
 802 0046 FFF7FEFF 		bl	get_calibrated_prox
 803              	.LVL73:
 804 004a 8346     		mov	fp, r0
 805 004c FFF7FEFF 		bl	left_motor_get_desired_speed
 806              	.LVL74:
 807 0050 0890     		str	r0, [sp, #32]
 808 0052 FFF7FEFF 		bl	right_motor_get_desired_speed
 809              	.LVL75:
 810 0056 089B     		ldr	r3, [sp, #32]
 811 0058 099A     		ldr	r2, [sp, #36]
 812 005a 0092     		str	r2, [sp]
 813 005c 0790     		str	r0, [sp, #28]
 814 005e 2A46     		mov	r2, r5
 815 0060 CDE905B3 		strd	fp, r3, [sp, #20]
 816 0064 0B49     		ldr	r1, .L72+4
 817 0066 3346     		mov	r3, r6
 818 0068 CDE9039A 		strd	r9, r10, [sp, #12]
 819 006c CDE90178 		strd	r7, r8, [sp, #4]
 820 0070 0AA8     		add	r0, sp, #40
 821 0072 FFF7FEFF 		bl	sprintf
 822              	.LVL76:
 823              		.loc 1 160 0
 824 0076 0146     		mov	r1, r0
 825 0078 0AA8     		add	r0, sp, #40
 826              	.LVL77:
 827 007a FFF7FEFF 		bl	e_send_uart1_char
 828              	.LVL78:
 829              		.loc 1 161 0
 830 007e 239A     		ldr	r2, [sp, #140]
 831 0080 2368     		ldr	r3, [r4]
 832 0082 9A42     		cmp	r2, r3
 833 0084 02D1     		bne	.L71
 834 0086 25B0     		add	sp, sp, #148
 835              		.cfi_remember_state
 836              		.cfi_def_cfa_offset 36
 837              		@ sp needed
 838 0088 BDE8F08F 		pop	{r4, r5, r6, r7, r8, r9, r10, fp, pc}
 839              	.L71:
 840              		.cfi_restore_state
 841 008c FFF7FEFF 		bl	__stack_chk_fail
 842              	.LVL79:
 843              	.L73:
 844              		.align	2
 845              	.L72:
 846 0090 00000000 		.word	__stack_chk_guard
 847 0094 00000000 		.word	.LC0
 848              		.cfi_endproc
 849              	.LFE266:
 850              		.size	send_bt_values, .-send_bt_values
 851              		.section	.text.startup.main,"ax",%progbits
 852              		.align	1
 853              		.p2align 4,,15
 854              		.global	main
 855              		.syntax unified
ARM GAS  /tmp/ccn0Bt7Q.s 			page 16


 856              		.thumb
 857              		.thumb_func
 858              		.fpu fpv4-sp-d16
 859              		.type	main, %function
 860              	main:
 861              	.LFB267:
 862              		.loc 1 166 0
 863              		.cfi_startproc
 864              		@ Volatile: function does not return.
 865              		@ args = 0, pretend = 0, frame = 8
 866              		@ frame_needed = 0, uses_anonymous_args = 0
 867 0000 00B5     		push	{lr}
 868              		.cfi_def_cfa_offset 4
 869              		.cfi_offset 14, -4
 870 0002 0D4B     		ldr	r3, .L81
 871 0004 83B0     		sub	sp, sp, #12
 872              		.cfi_def_cfa_offset 16
 873              		.loc 1 166 0
 874 0006 1B68     		ldr	r3, [r3]
 875 0008 0193     		str	r3, [sp, #4]
 876              		.loc 1 167 0
 877 000a FFF7FEFF 		bl	init
 878              	.LVL80:
 879              	.L75:
 880              		.loc 1 172 0
 881 000e FFF7FEFF 		bl	get_selector
 882              	.LVL81:
 883 0012 0446     		mov	r4, r0
 884 0014 48B9     		cbnz	r0, .L76
 885              	.L80:
 886              	.LBB12:
 887              	.LBB13:
 888              		.loc 1 78 0
 889 0016 FFF7FEFF 		bl	left_motor_set_speed
 890              	.LVL82:
 891              		.loc 1 79 0
 892 001a 2046     		mov	r0, r4
 893 001c FFF7FEFF 		bl	right_motor_set_speed
 894              	.LVL83:
 895              	.LBE13:
 896              	.LBE12:
 897              		.loc 1 172 0
 898 0020 FFF7FEFF 		bl	get_selector
 899              	.LVL84:
 900 0024 0446     		mov	r4, r0
 901 0026 0028     		cmp	r0, #0
 902 0028 F5D0     		beq	.L80
 903              	.L76:
 904              		.loc 1 176 0
 905 002a FFF7FEFF 		bl	obstacle_avoidance
 906              	.LVL85:
 907              		.loc 1 177 0
 908 002e 6420     		movs	r0, #100
 909 0030 FFF7FEFF 		bl	chThdSleep
 910              	.LVL86:
 911 0034 EBE7     		b	.L75
 912              	.L82:
ARM GAS  /tmp/ccn0Bt7Q.s 			page 17


 913 0036 00BF     		.align	2
 914              	.L81:
 915 0038 00000000 		.word	__stack_chk_guard
 916              		.cfi_endproc
 917              	.LFE267:
 918              		.size	main, .-main
 919              		.section	.text.__stack_chk_fail,"ax",%progbits
 920              		.align	1
 921              		.p2align 4,,15
 922              		.global	__stack_chk_fail
 923              		.syntax unified
 924              		.thumb
 925              		.thumb_func
 926              		.fpu fpv4-sp-d16
 927              		.type	__stack_chk_fail, %function
 928              	__stack_chk_fail:
 929              	.LFB268:
 930              		.loc 1 187 0
 931              		.cfi_startproc
 932              		@ args = 0, pretend = 0, frame = 8
 933              		@ frame_needed = 0, uses_anonymous_args = 0
 934 0000 00B5     		push	{lr}
 935              		.cfi_def_cfa_offset 4
 936              		.cfi_offset 14, -4
 937 0002 084B     		ldr	r3, .L88
 938 0004 83B0     		sub	sp, sp, #12
 939              		.cfi_def_cfa_offset 16
 940              		.loc 1 187 0
 941 0006 1A68     		ldr	r2, [r3]
 942 0008 0192     		str	r2, [sp, #4]
 943              		.loc 1 188 0
 944 000a 019A     		ldr	r2, [sp, #4]
 945 000c 1B68     		ldr	r3, [r3]
 946 000e 9A42     		cmp	r2, r3
 947 0010 05D1     		bne	.L87
 948 0012 0548     		ldr	r0, .L88+4
 949              		.loc 1 189 0
 950 0014 03B0     		add	sp, sp, #12
 951              		.cfi_remember_state
 952              		.cfi_def_cfa_offset 4
 953              		@ sp needed
 954 0016 5DF804EB 		ldr	lr, [sp], #4
 955              		.cfi_restore 14
 956              		.cfi_def_cfa_offset 0
 957              		.loc 1 188 0
 958 001a FFF7FEBF 		b	chSysHalt
 959              	.LVL87:
 960              	.L87:
 961              		.cfi_restore_state
 962 001e FFF7FEFF 		bl	__stack_chk_fail
 963              	.LVL88:
 964              	.L89:
 965 0022 00BF     		.align	2
 966              	.L88:
 967 0024 00000000 		.word	__stack_chk_guard
 968 0028 00000000 		.word	.LC1
 969              		.cfi_endproc
ARM GAS  /tmp/ccn0Bt7Q.s 			page 18


 970              	.LFE268:
 971              		.size	__stack_chk_fail, .-__stack_chk_fail
 972              		.global	__stack_chk_guard
 973              		.global	bus_condvar
 974              		.global	bus_lock
 975              		.global	bus
 976              		.global	THRESHOLD
 977              		.global	ESTOP_SELECTOR
 978              		.global	MAX_SPEED
 979              		.section	.bss.bus,"aw",%nobits
 980              		.align	2
 981              		.set	.LANCHOR2,. + 0
 982              		.type	bus, %object
 983              		.size	bus, 12
 984              	bus:
 985 0000 00000000 		.space	12
 985      00000000 
 985      00000000 
 986              		.section	.data.__stack_chk_guard,"aw",%progbits
 987              		.align	2
 988              		.type	__stack_chk_guard, %object
 989              		.size	__stack_chk_guard, 4
 990              	__stack_chk_guard:
 991 0000 96E3DEE2 		.word	-488709226
 992              		.section	.data.bus_condvar,"aw",%progbits
 993              		.align	2
 994              		.set	.LANCHOR0,. + 0
 995              		.type	bus_condvar, %object
 996              		.size	bus_condvar, 8
 997              	bus_condvar:
 998 0000 00000000 		.word	bus_condvar
 999 0004 00000000 		.word	bus_condvar
 1000              		.section	.data.bus_lock,"aw",%progbits
 1001              		.align	2
 1002              		.set	.LANCHOR1,. + 0
 1003              		.type	bus_lock, %object
 1004              		.size	bus_lock, 20
 1005              	bus_lock:
 1006 0000 00000000 		.word	bus_lock
 1007 0004 00000000 		.word	bus_lock
 1008 0008 00000000 		.word	0
 1009 000c 00000000 		.word	0
 1010 0010 00000000 		.word	0
 1011              		.section	.rodata.ESTOP_SELECTOR,"a",%progbits
 1012              		.align	2
 1013              		.type	ESTOP_SELECTOR, %object
 1014              		.size	ESTOP_SELECTOR, 4
 1015              	ESTOP_SELECTOR:
 1016 0000 00000000 		.space	4
 1017              		.section	.rodata.MAX_SPEED,"a",%progbits
 1018              		.align	2
 1019              		.type	MAX_SPEED, %object
 1020              		.size	MAX_SPEED, 4
 1021              	MAX_SPEED:
 1022 0000 E8030000 		.word	1000
 1023              		.section	.rodata.THRESHOLD,"a",%progbits
 1024              		.align	2
ARM GAS  /tmp/ccn0Bt7Q.s 			page 19


 1025              		.type	THRESHOLD, %object
 1026              		.size	THRESHOLD, 4
 1027              	THRESHOLD:
 1028 0000 64000000 		.word	100
 1029              		.section	.rodata.__stack_chk_fail.str1.4,"aMS",%progbits,1
 1030              		.align	2
 1031              	.LC1:
 1032 0000 53746163 		.ascii	"Stack smashing detected\000"
 1032      6B20736D 
 1032      61736869 
 1032      6E672064 
 1032      65746563 
 1033              		.section	.rodata.send_bt_values.str1.4,"aMS",%progbits,1
 1034              		.align	2
 1035              	.LC0:
 1036 0000 25642C25 		.ascii	"%d,%d,%d,%d,%d,%d,%d,%d,%d,%d\012\000"
 1036      642C2564 
 1036      2C25642C 
 1036      25642C25 
 1036      642C2564 
 1037              		.text
 1038              	.Letext0:
 1039              		.file 2 "/home/acse-lab/Documents/epuck_lab/Eclipse_e-puck2/Tools/gcc-arm-none-eabi-7-2017-q4-majo
 1040              		.file 3 "/home/acse-lab/Documents/epuck_lab/Eclipse_e-puck2/Tools/gcc-arm-none-eabi-7-2017-q4-majo
 1041              		.file 4 "/home/acse-lab/Documents/epuck_lab/Eclipse_e-puck2/Tools/gcc-arm-none-eabi-7-2017-q4-majo
 1042              		.file 5 "/home/acse-lab/Documents/epuck_lab/Eclipse_e-puck2/Tools/gcc-arm-none-eabi-7-2017-q4-majo
 1043              		.file 6 "/home/acse-lab/Documents/epuck_lab/Eclipse_e-puck2/Tools/gcc-arm-none-eabi-7-2017-q4-majo
 1044              		.file 7 "/home/acse-lab/Documents/epuck_lab/Eclipse_e-puck2/Tools/gcc-arm-none-eabi-7-2017-q4-majo
 1045              		.file 8 "/home/acse-lab/Documents/epuck_lab/Eclipse_e-puck2/Tools/gcc-arm-none-eabi-7-2017-q4-majo
 1046              		.file 9 "/home/acse-lab/Documents/epuck_lab/Eclipse_e-puck2/Tools/gcc-arm-none-eabi-7-2017-q4-majo
 1047              		.file 10 "../e-puck2_main-processor/ChibiOS//os/rt/ports/ARMCMx/compilers/GCC/chtypes.h"
 1048              		.file 11 "../e-puck2_main-processor/ChibiOS//os/rt/include/chsystypes.h"
 1049              		.file 12 "../e-puck2_main-processor/ChibiOS//os/rt/include/chschd.h"
 1050              		.file 13 "../e-puck2_main-processor/ChibiOS//os/ext/CMSIS/include/core_cm4.h"
 1051              		.file 14 "../e-puck2_main-processor/ChibiOS//os/ext/CMSIS/ST/system_stm32f4xx.h"
 1052              		.file 15 "../e-puck2_main-processor/ChibiOS//os/ext/CMSIS/ST/stm32f407xx.h"
 1053              		.file 16 "../e-puck2_main-processor/ChibiOS//os/rt/ports/ARMCMx/chcore.h"
 1054              		.file 17 "../e-puck2_main-processor/ChibiOS//os/rt/ports/ARMCMx/chcore_v7m.h"
 1055              		.file 18 "../e-puck2_main-processor/ChibiOS//os/rt/include/chdebug.h"
 1056              		.file 19 "../e-puck2_main-processor/ChibiOS//os/rt/include/chtm.h"
 1057              		.file 20 "../e-puck2_main-processor/ChibiOS//os/rt/include/chstats.h"
 1058              		.file 21 "../e-puck2_main-processor/ChibiOS//os/rt/include/chsem.h"
 1059              		.file 22 "../e-puck2_main-processor/ChibiOS//os/rt/include/chmtx.h"
 1060              		.file 23 "../e-puck2_main-processor/ChibiOS//os/rt/include/chregistry.h"
 1061              		.file 24 "../e-puck2_main-processor/ChibiOS//os/rt/include/chcond.h"
 1062              		.file 25 "../e-puck2_main-processor/ChibiOS//os/rt/include/chevents.h"
 1063              		.file 26 "../e-puck2_main-processor/ChibiOS//os/rt/include/chqueues.h"
 1064              		.file 27 "../e-puck2_main-processor/ChibiOS//os/hal/ports/STM32/STM32F4xx/stm32_dma.h"
 1065              		.file 28 "../e-puck2_main-processor/ChibiOS//os/hal/include/hal_ioblock.h"
 1066              		.file 29 "../e-puck2_main-processor/ChibiOS//os/hal/ports/STM32/LLD/GPIOv2/pal_lld.h"
 1067              		.file 30 "../e-puck2_main-processor/ChibiOS//os/hal/include/adc.h"
 1068              		.file 31 "../e-puck2_main-processor/ChibiOS//os/hal/ports/STM32/STM32F4xx/adc_lld.h"
 1069              		.file 32 "../e-puck2_main-processor/ChibiOS//os/hal/include/can.h"
 1070              		.file 33 "../e-puck2_main-processor/ChibiOS//os/hal/ports/STM32/LLD/can_lld.h"
 1071              		.file 34 "../e-puck2_main-processor/ChibiOS//os/hal/include/dac.h"
 1072              		.file 35 "../e-puck2_main-processor/ChibiOS//os/hal/ports/STM32/LLD/DACv1/dac_lld.h"
 1073              		.file 36 "../e-puck2_main-processor/ChibiOS//os/hal/include/ext.h"
ARM GAS  /tmp/ccn0Bt7Q.s 			page 20


 1074              		.file 37 "../e-puck2_main-processor/ChibiOS//os/hal/ports/STM32/LLD/ext_lld.h"
 1075              		.file 38 "../e-puck2_main-processor/ChibiOS//os/hal/include/gpt.h"
 1076              		.file 39 "../e-puck2_main-processor/ChibiOS//os/hal/ports/STM32/LLD/TIMv1/gpt_lld.h"
 1077              		.file 40 "../e-puck2_main-processor/ChibiOS//os/hal/ports/STM32/LLD/TIMv1/stm32_tim.h"
 1078              		.file 41 "../e-puck2_main-processor/ChibiOS//os/hal/include/i2c.h"
 1079              		.file 42 "../e-puck2_main-processor/ChibiOS//os/hal/ports/STM32/LLD/I2Cv1/i2c_lld.h"
 1080              		.file 43 "../e-puck2_main-processor/ChibiOS//os/hal/include/i2s.h"
 1081              		.file 44 "../e-puck2_main-processor/ChibiOS//os/hal/ports/STM32/LLD/SPIv1/i2s_lld.h"
 1082              		.file 45 "../e-puck2_main-processor/ChibiOS//os/hal/include/pwm.h"
 1083              		.file 46 "../e-puck2_main-processor/ChibiOS//os/hal/ports/STM32/LLD/TIMv1/pwm_lld.h"
 1084              		.file 47 "../e-puck2_main-processor/ChibiOS//os/hal/include/serial.h"
 1085              		.file 48 "../e-puck2_main-processor/ChibiOS//os/hal/ports/STM32/LLD/USARTv1/serial_lld.h"
 1086              		.file 49 "../e-puck2_main-processor/ChibiOS//os/hal/include/sdc.h"
 1087              		.file 50 "../e-puck2_main-processor/ChibiOS//os/hal/ports/STM32/LLD/sdc_lld.h"
 1088              		.file 51 "../e-puck2_main-processor/ChibiOS//os/hal/include/spi.h"
 1089              		.file 52 "../e-puck2_main-processor/ChibiOS//os/hal/ports/STM32/LLD/SPIv1/spi_lld.h"
 1090              		.file 53 "../e-puck2_main-processor/ChibiOS//os/hal/include/usb.h"
 1091              		.file 54 "../e-puck2_main-processor/ChibiOS//os/hal/ports/STM32/LLD/OTGv1/usb_lld.h"
 1092              		.file 55 "../e-puck2_main-processor/ChibiOS//os/hal/ports/STM32/LLD/OTGv1/stm32_otg.h"
 1093              		.file 56 "/home/acse-lab/Documents/epuck_lab/Eclipse_e-puck2/Tools/gcc-arm-none-eabi-7-2017-q4-maj
 1094              		.file 57 "../e-puck2_main-processor/src/msgbus/messagebus.h"
 1095              		.file 58 "../e-puck2_main-processor/src/parameter/parameter.h"
 1096              		.file 59 "./main.h"
 1097              		.file 60 "../e-puck2_main-processor/src/motors.h"
 1098              		.file 61 "../e-puck2_main-processor/ChibiOS//os/rt/include/chsys.h"
 1099              		.file 62 "../e-puck2_main-processor/src/selector.h"
 1100              		.file 63 "../e-puck2_main-processor/ChibiOS//os/rt/include/chthreads.h"
 1101              		.file 64 "../e-puck2_main-processor/src/sensors/proximity.h"
 1102              		.file 65 "/home/acse-lab/Documents/epuck_lab/Eclipse_e-puck2/Tools/gcc-arm-none-eabi-7-2017-q4-maj
 1103              		.file 66 "../e-puck2_main-processor/src/epuck1x/uart/e_uart_char.h"
 1104              		.file 67 "../e-puck2_main-processor/ChibiOS//os/hal/include/hal.h"
 1105              		.file 68 "../e-puck2_main-processor/src/memory_protection.h"
 1106              		.file 69 "../e-puck2_main-processor/src/leds.h"
 1107              		.file 70 "../e-puck2_main-processor/src/spi_comm.h"
 1108              		.file 71 "../e-puck2_main-processor/src/serial_comm.h"
 1109              		.file 72 "../e-puck2_main-processor/src/sensors/VL53L0X/VL53L0X.h"